target datalayout = "e-m:e-p270:32:32-p271:32:32-p272:64:64-i64:64-i128:128-f80:128-n8:16:32:64-S128"
target triple = "x86_64-pc-linux-gnu"

%struct.siphash_data_st = type { ptr, %struct.siphash_st, %struct.siphash_st, i32, i32 }
%struct.siphash_st = type { i64, i64, i64, i64, i64, i32, i32, i32, i32, [8 x i8] }

@.str = private unnamed_addr constant [57 x i8] c"../openssl/providers/implementations/macs/siphash_prov.c\00", align 1

; Function Attrs: nounwind uwtable
define internal ptr @siphash_new(ptr noundef %0) #0 {
  %2 = alloca ptr, align 8
  %3 = alloca ptr, align 8
  %4 = alloca ptr, align 8
  %5 = alloca i32, align 4
  store ptr %0, ptr %3, align 8, !tbaa !3
  call void @llvm.lifetime.start.p0(i64 8, ptr %4) #5
  %6 = call i32 @ossl_prov_is_running()
  %7 = icmp ne i32 %6, 0
  br i1 %7, label %9, label %8

8:                                                ; preds = %1
  store ptr null, ptr %2, align 8
  store i32 1, ptr %5, align 4
  br label %19

9:                                                ; preds = %1
  %10 = call noalias ptr @CRYPTO_zalloc(i64 noundef 144, ptr noundef @.str, i32 noundef 62)
  store ptr %10, ptr %4, align 8, !tbaa !7
  %11 = load ptr, ptr %4, align 8, !tbaa !7
  %12 = icmp ne ptr %11, null
  br i1 %12, label %13, label %17

13:                                               ; preds = %9
  %14 = load ptr, ptr %3, align 8, !tbaa !3
  %15 = load ptr, ptr %4, align 8, !tbaa !7
  %16 = getelementptr inbounds nuw %struct.siphash_data_st, ptr %15, i32 0, i32 0
  store ptr %14, ptr %16, align 8, !tbaa !9
  br label %17

17:                                               ; preds = %13, %9
  %18 = load ptr, ptr %4, align 8, !tbaa !7
  store ptr %18, ptr %2, align 8
  store i32 1, ptr %5, align 4
  br label %19

19:                                               ; preds = %17, %8
  call void @llvm.lifetime.end.p0(i64 8, ptr %4) #5
  %20 = load ptr, ptr %2, align 8
  ret ptr %20
}